target datalayout = "e-m:e-p270:32:32-p271:32:32-p272:64:64-i64:64-i128:128-f80:128-n8:16:32:64-S128"
target triple = "x86_64-pc-linux-gnu"

%"class.std::__cxx11::basic_string" = type { %"struct.std::__cxx11::basic_string<char>::_Alloc_hider", i64, %union.anon }
%"struct.std::__cxx11::basic_string<char>::_Alloc_hider" = type { ptr }
%union.anon = type { i64, [8 x i8] }
%"class.casadi::SharedObject" = type { %"class.casadi::GenericShared" }
%"class.casadi::GenericShared" = type { ptr }
%"class.casadi::Function" = type { %"class.casadi::SharedObject" }

; Function Attrs: mustprogress nounwind uwtable
define linkonce_odr hidden void @_ZNSt15__new_allocatorIcE10deallocateEPcm(ptr noundef nonnull align 1 dereferenceable(1) %0, ptr noundef %1, i64 noundef %2) #6 comdat align 2 {
  %4 = alloca ptr, align 8
  %5 = alloca ptr, align 8
  %6 = alloca i64, align 8
  store ptr %0, ptr %4, align 8, !tbaa !402
  store ptr %1, ptr %5, align 8, !tbaa !20
  store i64 %2, ptr %6, align 8, !tbaa !150
  %7 = load ptr, ptr %5, align 8, !tbaa !20
  %8 = load i64, ptr %6, align 8, !tbaa !150
  %9 = mul i64 %8, 1
  call void @_ZdlPvm(ptr noundef %7, i64 noundef %9) #25
  ret void
}

; Function Attrs: mustprogress nounwind uwtable
define linkonce_odr hidden noundef ptr @_ZNSt19__ptr_traits_ptr_toIPKcS0_Lb0EE10pointer_toERS0_(ptr noundef nonnull align 1 dereferenceable(1) %0) #6 comdat align 2 {
  %2 = alloca ptr, align 8
  store ptr %0, ptr %2, align 8, !tbaa !20
  %3 = load ptr, ptr %2, align 8, !tbaa !20
  ret ptr %3
}

; Function Attrs: mustprogress uwtable
define linkonce_odr hidden void @_ZNSt16allocator_traitsISaIcEE10deallocateERS0_Pcm(ptr noundef nonnull align 1 dereferenceable(1) %0, ptr noundef %1, i64 noundef %2) #4 comdat align 2 {
  %4 = alloca ptr, align 8
  %5 = alloca ptr, align 8
  %6 = alloca i64, align 8
  store ptr %0, ptr %4, align 8, !tbaa !18
  store ptr %1, ptr %5, align 8, !tbaa !20
  store i64 %2, ptr %6, align 8, !tbaa !150
  %7 = load ptr, ptr %4, align 8, !tbaa !18
  %8 = load ptr, ptr %5, align 8, !tbaa !20
  %9 = load i64, ptr %6, align 8, !tbaa !150
  call void @_ZNSt15__new_allocatorIcE10deallocateEPcm(ptr noundef nonnull align 1 dereferenceable(1) %7, ptr noundef %8, i64 noundef %9)
  ret void
}

; Function Attrs: mustprogress nounwind uwtable
define available_externally noundef nonnull align 1 dereferenceable(1) ptr @_ZNSt7__cxx1112basic_stringIcSt11char_traitsIcESaIcEE16_M_get_allocatorEv(ptr noundef nonnull align 8 dereferenceable(32) %0) #6 align 2 {
  %2 = alloca ptr, align 8
  store ptr %0, ptr %2, align 8, !tbaa !8
  %3 = load ptr, ptr %2, align 8
  %4 = getelementptr inbounds nuw %"class.std::__cxx11::basic_string", ptr %3, i32 0, i32 0
  ret ptr %4
}

; Function Attrs: mustprogress nounwind uwtable
define available_externally noundef ptr @_ZNKSt7__cxx1112basic_stringIcSt11char_traitsIcESaIcEE13_M_local_dataEv(ptr noundef nonnull align 8 dereferenceable(32) %0) #6 align 2 {
  %2 = alloca ptr, align 8
  store ptr %0, ptr %2, align 8, !tbaa !8
  %3 = load ptr, ptr %2, align 8
  %4 = getelementptr inbounds nuw %"class.std::__cxx11::basic_string", ptr %3, i32 0, i32 2
  %5 = getelementptr inbounds [16 x i8], ptr %4, i64 0, i64 0
  %6 = call noundef ptr @_ZNSt19__ptr_traits_ptr_toIPKcS0_Lb0EE10pointer_toERS0_(ptr noundef nonnull align 1 dereferenceable(1) %5) #3
  ret ptr %6
}

; Function Attrs: mustprogress nounwind uwtable
define available_externally noundef ptr @_ZNKSt7__cxx1112basic_stringIcSt11char_traitsIcESaIcEE7_M_dataEv(ptr noundef nonnull align 8 dereferenceable(32) %0) #6 align 2 {
  %2 = alloca ptr, align 8
  store ptr %0, ptr %2, align 8, !tbaa !8
  %3 = load ptr, ptr %2, align 8
  %4 = getelementptr inbounds nuw %"class.std::__cxx11::basic_string", ptr %3, i32 0, i32 0
  %5 = getelementptr inbounds nuw %"struct.std::__cxx11::basic_string<char>::_Alloc_hider", ptr %4, i32 0, i32 0
  %6 = load ptr, ptr %5, align 8, !tbaa !398
  ret ptr %6
}

; Function Attrs: mustprogress nounwind uwtable
define available_externally void @_ZNSt7__cxx1112basic_stringIcSt11char_traitsIcESaIcEE10_M_destroyEm(ptr noundef nonnull align 8 dereferenceable(32) %0, i64 noundef %1) #6 align 2 personality ptr @__gxx_personality_v0 {
  %3 = alloca ptr, align 8
  %4 = alloca i64, align 8
  store ptr %0, ptr %3, align 8, !tbaa !8
  store i64 %1, ptr %4, align 8, !tbaa !150
  %5 = load ptr, ptr %3, align 8
  %6 = call noundef nonnull align 1 dereferenceable(1) ptr @_ZNSt7__cxx1112basic_stringIcSt11char_traitsIcESaIcEE16_M_get_allocatorEv(ptr noundef nonnull align 8 dereferenceable(32) %5)
  %7 = call noundef ptr @_ZNKSt7__cxx1112basic_stringIcSt11char_traitsIcESaIcEE7_M_dataEv(ptr noundef nonnull align 8 dereferenceable(32) %5)
  %8 = load i64, ptr %4, align 8, !tbaa !150
  %9 = add i64 %8, 1
  invoke void @_ZNSt16allocator_traitsISaIcEE10deallocateERS0_Pcm(ptr noundef nonnull align 1 dereferenceable(1) %6, ptr noundef %7, i64 noundef %9)
          to label %10 unwind label %11

10:                                               ; preds = %2
  ret void

11:                                               ; preds = %2
  %12 = landingpad { ptr, i32 }
          catch ptr null
  %13 = extractvalue { ptr, i32 } %12, 0
  call void @__clang_call_terminate(ptr %13) #22
  unreachable
}

; Function Attrs: mustprogress uwtable
define available_externally noundef zeroext i1 @_ZNKSt7__cxx1112basic_stringIcSt11char_traitsIcESaIcEE11_M_is_localEv(ptr noundef nonnull align 8 dereferenceable(32) %0) #4 align 2 {
  %2 = alloca i1, align 1
  %3 = alloca ptr, align 8
  store ptr %0, ptr %3, align 8, !tbaa !8
  %4 = load ptr, ptr %3, align 8
  %5 = call noundef ptr @_ZNKSt7__cxx1112basic_stringIcSt11char_traitsIcESaIcEE7_M_dataEv(ptr noundef nonnull align 8 dereferenceable(32) %4)
  %6 = call noundef ptr @_ZNKSt7__cxx1112basic_stringIcSt11char_traitsIcESaIcEE13_M_local_dataEv(ptr noundef nonnull align 8 dereferenceable(32) %4)
  %7 = icmp eq ptr %5, %6
  br i1 %7, label %8, label %14

8:                                                ; preds = %1
  %9 = getelementptr inbounds nuw %"class.std::__cxx11::basic_string", ptr %4, i32 0, i32 1
  %10 = load i64, ptr %9, align 8, !tbaa !390
  %11 = icmp ugt i64 %10, 15
  br i1 %11, label %12, label %13

12:                                               ; preds = %8
  unreachable

13:                                               ; preds = %8
  store i1 true, ptr %2, align 1
  br label %15

14:                                               ; preds = %1
  store i1 false, ptr %2, align 1
  br label %15

15:                                               ; preds = %14, %13
  %16 = load i1, ptr %2, align 1
  ret i1 %16
}

; Function Attrs: noinline noreturn nounwind uwtable
define linkonce_odr hidden void @__clang_call_terminate(ptr noundef %0) #11 comdat {
  %2 = call ptr @__cxa_begin_catch(ptr %0) #3
  call void @_ZSt9terminatev() #22
  unreachable
}

; Function Attrs: mustprogress nounwind uwtable
define linkonce_odr hidden void @_ZNSt15__new_allocatorIcED2Ev(ptr noundef nonnull align 1 dereferenceable(1) %0) unnamed_addr #6 comdat align 2 {
  %2 = alloca ptr, align 8
  store ptr %0, ptr %2, align 8, !tbaa !402
  ret void
}

; Function Attrs: mustprogress uwtable
define available_externally void @_ZNSt7__cxx1112basic_stringIcSt11char_traitsIcESaIcEE10_M_disposeEv(ptr noundef nonnull align 8 dereferenceable(32) %0) #4 align 2 {
  %2 = alloca ptr, align 8
  store ptr %0, ptr %2, align 8, !tbaa !8
  %3 = load ptr, ptr %2, align 8
  %4 = call noundef zeroext i1 @_ZNKSt7__cxx1112basic_stringIcSt11char_traitsIcESaIcEE11_M_is_localEv(ptr noundef nonnull align 8 dereferenceable(32) %3)
  br i1 %4, label %8, label %5

5:                                                ; preds = %1
  %6 = getelementptr inbounds nuw %"class.std::__cxx11::basic_string", ptr %3, i32 0, i32 2
  %7 = load i64, ptr %6, align 8, !tbaa !395
  call void @_ZNSt7__cxx1112basic_stringIcSt11char_traitsIcESaIcEE10_M_destroyEm(ptr noundef nonnull align 8 dereferenceable(32) %3, i64 noundef %7) #3
  br label %8

8:                                                ; preds = %5, %1
  ret void
}

; Function Attrs: mustprogress nounwind uwtable
define available_externally void @_ZNSt7__cxx1112basic_stringIcSt11char_traitsIcESaIcEED2Ev(ptr noundef nonnull align 8 dereferenceable(32) %0) unnamed_addr #6 align 2 personality ptr @__gxx_personality_v0 {
  %2 = alloca ptr, align 8
  store ptr %0, ptr %2, align 8, !tbaa !8
  %3 = load ptr, ptr %2, align 8
  invoke void @_ZNSt7__cxx1112basic_stringIcSt11char_traitsIcESaIcEE10_M_disposeEv(ptr noundef nonnull align 8 dereferenceable(32) %3)
          to label %4 unwind label %6

4:                                                ; preds = %1
  %5 = getelementptr inbounds nuw %"class.std::__cxx11::basic_string", ptr %3, i32 0, i32 0
  call void @_ZNSt15__new_allocatorIcED2Ev(ptr noundef nonnull align 8 dereferenceable(8) %5) #3
  ret void

6:                                                ; preds = %1
  %7 = landingpad { ptr, i32 }
          catch ptr null
  %8 = extractvalue { ptr, i32 } %7, 0
  call void @__clang_call_terminate(ptr %8) #22
  unreachable
}

; Function Attrs: mustprogress uwtable
define void @_ZN6casadi14OracleFunction14create_forwardERKNSt7__cxx1112basic_stringIcSt11char_traitsIcESaIcEEEx(ptr dead_on_unwind noalias writable sret(%"class.casadi::Function") align 8 %0, ptr noundef nonnull align 8 dereferenceable(1528) %1, ptr noundef nonnull align 8 dereferenceable(32) %2, i64 noundef %3) #4 align 2 personality ptr @__gxx_personality_v0 {
  %5 = alloca ptr, align 8
  %6 = alloca ptr, align 8
  %7 = alloca ptr, align 8
  %8 = alloca i64, align 8
  %9 = alloca i1, align 1
  %10 = alloca %"class.std::__cxx11::basic_string", align 8
  %11 = alloca ptr, align 8
  %12 = alloca i32, align 4
  store ptr %0, ptr %5, align 8
  store ptr %1, ptr %6, align 8, !tbaa !10
  store ptr %2, ptr %7, align 8, !tbaa !8
  store i64 %3, ptr %8, align 8, !tbaa !203
  %13 = load ptr, ptr %6, align 8
  store i1 false, ptr %9, align 1
  %14 = load ptr, ptr %7, align 8, !tbaa !8
  %15 = load ptr, ptr %13, align 8, !tbaa !23
  %16 = getelementptr inbounds ptr, ptr %15, i64 20
  %17 = load ptr, ptr %16, align 8
  %18 = call noundef nonnull align 8 dereferenceable(8) ptr %17(ptr noundef nonnull align 8 dereferenceable(1528) %13, ptr noundef nonnull align 8 dereferenceable(32) %14)
  %19 = load i64, ptr %8, align 8, !tbaa !203
  call void @_ZNK6casadi8Function7forwardEx(ptr dead_on_unwind writable sret(%"class.casadi::Function") align 8 %0, ptr noundef nonnull align 8 dereferenceable(8) %18, i64 noundef %19)
  call void @llvm.lifetime.start.p0(i64 32, ptr %10) #3
  %20 = load ptr, ptr %7, align 8, !tbaa !8
  %21 = load i64, ptr %8, align 8, !tbaa !203
  invoke void @_ZN6casadi16FunctionInternal12forward_nameERKNSt7__cxx1112basic_stringIcSt11char_traitsIcESaIcEEEx(ptr dead_on_unwind writable sret(%"class.std::__cxx11::basic_string") align 8 %10, ptr noundef nonnull align 8 dereferenceable(32) %20, i64 noundef %21)
          to label %22 unwind label %30

22:                                               ; preds = %4
  %23 = load ptr, ptr %13, align 8, !tbaa !23
  %24 = getelementptr inbounds ptr, ptr %23, i64 21
  %25 = load ptr, ptr %24, align 8
  %26 = invoke noundef zeroext i1 %25(ptr noundef nonnull align 8 dereferenceable(1528) %13, ptr noundef nonnull align 8 dereferenceable(32) %10)
          to label %27 unwind label %34

27:                                               ; preds = %22
  br i1 %26, label %38, label %28

28:                                               ; preds = %27
  invoke void @_ZN6casadi14OracleFunction12set_functionERKNS_8FunctionERKNSt7__cxx1112basic_stringIcSt11char_traitsIcESaIcEEEb(ptr noundef nonnull align 8 dereferenceable(1528) %13, ptr noundef nonnull align 8 dereferenceable(8) %0, ptr noundef nonnull align 8 dereferenceable(32) %10, i1 noundef zeroext true)
          to label %29 unwind label %34

29:                                               ; preds = %28
  br label %38

30:                                               ; preds = %4
  %31 = landingpad { ptr, i32 }
          cleanup
  %32 = extractvalue { ptr, i32 } %31, 0
  store ptr %32, ptr %11, align 8
  %33 = extractvalue { ptr, i32 } %31, 1
  store i32 %33, ptr %12, align 4
  br label %40

34:                                               ; preds = %28, %22
  %35 = landingpad { ptr, i32 }
          cleanup
  %36 = extractvalue { ptr, i32 } %35, 0
  store ptr %36, ptr %11, align 8
  %37 = extractvalue { ptr, i32 } %35, 1
  store i32 %37, ptr %12, align 4
  call void @_ZNSt7__cxx1112basic_stringIcSt11char_traitsIcESaIcEED2Ev(ptr noundef nonnull align 8 dereferenceable(32) %10) #3
  br label %40

38:                                               ; preds = %29, %27
  store i1 true, ptr %9, align 1
  call void @_ZNSt7__cxx1112basic_stringIcSt11char_traitsIcESaIcEED2Ev(ptr noundef nonnull align 8 dereferenceable(32) %10) #3
  call void @llvm.lifetime.end.p0(i64 32, ptr %10) #3
  %39 = load i1, ptr %9, align 1
  br i1 %39, label %42, label %41

40:                                               ; preds = %34, %30
  call void @llvm.lifetime.end.p0(i64 32, ptr %10) #3
  call void @_ZN6casadi8FunctionD1Ev(ptr noundef nonnull align 8 dereferenceable(8) %0) #3
  br label %43

41:                                               ; preds = %38
  call void @_ZN6casadi8FunctionD1Ev(ptr noundef nonnull align 8 dereferenceable(8) %0) #3
  br label %42

42:                                               ; preds = %41, %38
  ret void

43:                                               ; preds = %40
  %44 = load ptr, ptr %11, align 8
  %45 = load i32, ptr %12, align 4
  %46 = insertvalue { ptr, i32 } poison, ptr %44, 0
  %47 = insertvalue { ptr, i32 } %46, i32 %45, 1
  resume { ptr, i32 } %47
}