; Function Attrs: mustprogress uwtable
define void @_ZN6casadi14OracleFunction14create_forwardERKNSt7__cxx1112basic_stringIcSt11char_traitsIcESaIcEEEx(ptr dead_on_unwind noalias writable sret(%"class.casadi::Function") align 8 %0, ptr noundef nonnull align 8 dereferenceable(1528) %1, ptr noundef nonnull align 8 dereferenceable(32) %2, i64 noundef %3) local_unnamed_addr #3 align 2 personality ptr @__gxx_personality_v0 {
  %5 = alloca %"class.std::__cxx11::basic_string", align 8
  %6 = load ptr, ptr %1, align 8, !tbaa !18
  %7 = getelementptr inbounds nuw i8, ptr %6, i64 160
  %8 = load ptr, ptr %7, align 8
  %9 = tail call noundef nonnull align 8 dereferenceable(8) ptr %8(ptr noundef nonnull align 8 dereferenceable(1528) %1, ptr noundef nonnull align 8 dereferenceable(32) %2)
  tail call void @_ZNK6casadi8Function7forwardEx(ptr dead_on_unwind writable sret(%"class.casadi::Function") align 8 %0, ptr noundef nonnull align 8 dereferenceable(8) %9, i64 noundef %3)
  call void @llvm.lifetime.start.p0(i64 32, ptr nonnull %5) #29
  invoke void @_ZN6casadi16FunctionInternal12forward_nameERKNSt7__cxx1112basic_stringIcSt11char_traitsIcESaIcEEEx(ptr dead_on_unwind nonnull writable sret(%"class.std::__cxx11::basic_string") align 8 %5, ptr noundef nonnull align 8 dereferenceable(32) %2, i64 noundef %3)
          to label %10 unwind label %17

10:                                               ; preds = %4
  %11 = load ptr, ptr %1, align 8, !tbaa !18
  %12 = getelementptr inbounds nuw i8, ptr %11, i64 168
  %13 = load ptr, ptr %12, align 8
  %14 = invoke noundef zeroext i1 %13(ptr noundef nonnull align 8 dereferenceable(1528) %1, ptr noundef nonnull align 8 dereferenceable(32) %5)
          to label %15 unwind label %19

15:                                               ; preds = %10
  br i1 %14, label %29, label %16

16:                                               ; preds = %15
  invoke void @_ZN6casadi14OracleFunction12set_functionERKNS_8FunctionERKNSt7__cxx1112basic_stringIcSt11char_traitsIcESaIcEEEb(ptr noundef nonnull align 8 dereferenceable(1528) %1, ptr noundef nonnull align 8 dereferenceable(8) %0, ptr noundef nonnull align 8 dereferenceable(32) %5, i1 noundef zeroext true)
          to label %29 unwind label %19

17:                                               ; preds = %4
  %18 = landingpad { ptr, i32 }
          cleanup
  br label %_ZNSt7__cxx1112basic_stringIcSt11char_traitsIcESaIcEED2Ev.exit

19:                                               ; preds = %16, %10
  %20 = landingpad { ptr, i32 }
          cleanup
  %21 = load ptr, ptr %5, align 8, !tbaa !9
  %22 = getelementptr inbounds nuw i8, ptr %5, i64 16
  %23 = icmp eq ptr %21, %22
  br i1 %23, label %_ZNKSt7__cxx1112basic_stringIcSt11char_traitsIcESaIcEE11_M_is_localEv.exit.thread.i.i, label %_ZNKSt7__cxx1112basic_stringIcSt11char_traitsIcESaIcEE11_M_is_localEv.exit.i.i

_ZNKSt7__cxx1112basic_stringIcSt11char_traitsIcESaIcEE11_M_is_localEv.exit.thread.i.i: ; preds = %19
  %24 = getelementptr inbounds nuw i8, ptr %5, i64 8
  %25 = load i64, ptr %24, align 8, !tbaa !12
  %26 = icmp ult i64 %25, 16
  call void @llvm.assume(i1 %26)
  br label %_ZNSt7__cxx1112basic_stringIcSt11char_traitsIcESaIcEED2Ev.exit

_ZNKSt7__cxx1112basic_stringIcSt11char_traitsIcESaIcEE11_M_is_localEv.exit.i.i: ; preds = %19
  %27 = load i64, ptr %22, align 8, !tbaa !14
  %28 = add i64 %27, 1
  call void @_ZdlPvm(ptr noundef %21, i64 noundef %28) #31
  br label %_ZNSt7__cxx1112basic_stringIcSt11char_traitsIcESaIcEED2Ev.exit

29:                                               ; preds = %16, %15
  %30 = load ptr, ptr %5, align 8, !tbaa !9
  %31 = getelementptr inbounds nuw i8, ptr %5, i64 16
  %32 = icmp eq ptr %30, %31
  br i1 %32, label %_ZNKSt7__cxx1112basic_stringIcSt11char_traitsIcESaIcEE11_M_is_localEv.exit.thread.i.i10, label %_ZNKSt7__cxx1112basic_stringIcSt11char_traitsIcESaIcEE11_M_is_localEv.exit.i.i9

_ZNKSt7__cxx1112basic_stringIcSt11char_traitsIcESaIcEE11_M_is_localEv.exit.thread.i.i10: ; preds = %29
  %33 = getelementptr inbounds nuw i8, ptr %5, i64 8
  %34 = load i64, ptr %33, align 8, !tbaa !12
  %35 = icmp ult i64 %34, 16
  call void @llvm.assume(i1 %35)
  br label %_ZNSt7__cxx1112basic_stringIcSt11char_traitsIcESaIcEED2Ev.exit11

_ZNKSt7__cxx1112basic_stringIcSt11char_traitsIcESaIcEE11_M_is_localEv.exit.i.i9: ; preds = %29
  %36 = load i64, ptr %31, align 8, !tbaa !14
  %37 = add i64 %36, 1
  call void @_ZdlPvm(ptr noundef %30, i64 noundef %37) #31
  br label %_ZNSt7__cxx1112basic_stringIcSt11char_traitsIcESaIcEED2Ev.exit11

_ZNSt7__cxx1112basic_stringIcSt11char_traitsIcESaIcEED2Ev.exit11: ; preds = %_ZNKSt7__cxx1112basic_stringIcSt11char_traitsIcESaIcEE11_M_is_localEv.exit.thread.i.i10, %_ZNKSt7__cxx1112basic_stringIcSt11char_traitsIcESaIcEE11_M_is_localEv.exit.i.i9
  call void @llvm.lifetime.end.p0(i64 32, ptr nonnull %5) #29
  ret void

_ZNSt7__cxx1112basic_stringIcSt11char_traitsIcESaIcEED2Ev.exit: ; preds = %_ZNKSt7__cxx1112basic_stringIcSt11char_traitsIcESaIcEE11_M_is_localEv.exit.i.i, %_ZNKSt7__cxx1112basic_stringIcSt11char_traitsIcESaIcEE11_M_is_localEv.exit.thread.i.i, %17
  %.pn = phi { ptr, i32 } [ %18, %17 ], [ %20, %_ZNKSt7__cxx1112basic_stringIcSt11char_traitsIcESaIcEE11_M_is_localEv.exit.thread.i.i ], [ %20, %_ZNKSt7__cxx1112basic_stringIcSt11char_traitsIcESaIcEE11_M_is_localEv.exit.i.i ]
  call void @llvm.lifetime.end.p0(i64 32, ptr nonnull %5) #29
  call void @_ZN6casadi8FunctionD1Ev(ptr noundef nonnull align 8 dereferenceable(8) %0) #29
  resume { ptr, i32 } %.pn
}